target datalayout = "e-m:e-p270:32:32-p271:32:32-p272:64:64-i64:64-i128:128-f80:128-n8:16:32:64-S128"
target triple = "x86_64-pc-linux-gnu"

%struct.Rwr_Man5_t_ = type { ptr, ptr }

@s_pManRwrExp5 = internal global ptr null, align 8

; Function Attrs: nounwind uwtable
define void @Rwt_Man5ExploreCount(i32 noundef %0) #0 {
  %2 = alloca i32, align 4
  %3 = alloca ptr, align 8
  store i32 %0, ptr %2, align 4, !tbaa !14
  call void @llvm.lifetime.start.p0(i64 8, ptr %3) #10
  %4 = load ptr, ptr @s_pManRwrExp5, align 8, !tbaa !26
  %5 = getelementptr inbounds nuw %struct.Rwr_Man5_t_, ptr %4, i32 0, i32 0
  %6 = load ptr, ptr %5, align 8, !tbaa !28
  %7 = load i32, ptr %2, align 4, !tbaa !14
  %8 = zext i32 %7 to i64
  %9 = inttoptr i64 %8 to ptr
  %10 = call i32 @stmm_find_or_add(ptr noundef %6, ptr noundef %9, ptr noundef %3)
  %11 = icmp ne i32 %10, 0
  br i1 %11, label %14, label %12

12:                                               ; preds = %1
  %13 = load ptr, ptr %3, align 8, !tbaa !20
  store i32 0, ptr %13, align 4, !tbaa !14
  br label %14

14:                                               ; preds = %12, %1
  %15 = load ptr, ptr %3, align 8, !tbaa !20
  %16 = load i32, ptr %15, align 4, !tbaa !14
  %17 = add nsw i32 %16, 1
  store i32 %17, ptr %15, align 4, !tbaa !14
  call void @llvm.lifetime.end.p0(i64 8, ptr %3) #10
  ret void
}