; Function Attrs: nounwind uwtable
define void @Rwt_Man5ExploreCount(i32 noundef %0) local_unnamed_addr #0 {
  %2 = alloca ptr, align 8
  call void @llvm.lifetime.start.p0(i64 8, ptr nonnull %2) #18
  %3 = load ptr, ptr @s_pManRwrExp5.body, align 8, !tbaa !25
  %4 = zext i32 %0 to i64
  %5 = inttoptr i64 %4 to ptr
  %6 = call i32 @stmm_find_or_add(ptr noundef %3, ptr noundef %5, ptr noundef nonnull %2) #18
  %.not = icmp eq i32 %6, 0
  %.pre = load ptr, ptr %2, align 8, !tbaa !29
  br i1 %.not, label %8, label %._crit_edge

._crit_edge:                                      ; preds = %1
  %.pre1 = load i32, ptr %.pre, align 4, !tbaa !17
  %7 = add nsw i32 %.pre1, 1
  br label %8

8:                                                ; preds = %1, %._crit_edge
  %9 = phi i32 [ %7, %._crit_edge ], [ 1, %1 ]
  store i32 %9, ptr %.pre, align 4, !tbaa !17
  call void @llvm.lifetime.end.p0(i64 8, ptr nonnull %2) #18
  ret void
}